(lp0
ccopy_reg
_reconstructor
p1
(csklearn.linear_model.logistic
LogisticRegression
p2
c__builtin__
object
p3
Ntp4
Rp5
(dp6
S'warm_start'
p7
I00
sS'C'
p8
I10
sS'classes_'
p9
cnumpy.core.multiarray
_reconstruct
p10
(cnumpy
ndarray
p11
(I0
tp12
S'b'
p13
tp14
Rp15
(I1
(I2
tp16
cnumpy
dtype
p17
(S'i8'
p18
I0
I1
tp19
Rp20
(I3
S'<'
p21
NNNI-1
I-1
I0
tp22
bI00
S'\x00\x00\x00\x00\x00\x00\x00\x00\x01\x00\x00\x00\x00\x00\x00\x00'
p23
tp24
bsS'n_jobs'
p25
I1
sS'verbose'
p26
I0
sS'fit_intercept'
p27
I01
sS'max_iter'
p28
I100
sS'class_weight'
p29
NsS'n_iter_'
p30
g10
(g11
(I0
tp31
g13
tp32
Rp33
(I1
(I1
tp34
g17
(S'i4'
p35
I0
I1
tp36
Rp37
(I3
S'<'
p38
NNNI-1
I-1
I0
tp39
bI00
S'\x06\x00\x00\x00'
p40
tp41
bsS'intercept_'
p42
g10
(g11
(I0
tp43
g13
tp44
Rp45
(I1
(I1
tp46
g17
(S'f8'
p47
I0
I1
tp48
Rp49
(I3
S'<'
p50
NNNI-1
I-1
I0
tp51
bI00
S'7\xd73\r\xf1*\xff\xbf'
p52
tp53
bsS'penalty'
p54
S'l2'
p55
sS'multi_class'
p56
S'ovr'
p57
sS'random_state'
p58
I42
sS'_sklearn_version'
p59
S'0.18.1'
p60
sS'dual'
p61
I00
sS'tol'
p62
F0.0001
sS'coef_'
p63
g10
(g11
(I0
tp64
g13
tp65
Rp66
(I1
(I1
I2
tp67
g49
I01
S'X1ne\x8a\xe2\xf9?\xb7\xe6Z\xe5c\x9e\xf2?'
p68
tp69
bsS'solver'
p70
S'liblinear'
p71
sS'intercept_scaling'
p72
I1
sbag1
(g2
g3
Ntp73
Rp74
(dp75
g7
I00
sg8
I10
sg9
g10
(g11
(I0
tp76
g13
tp77
Rp78
(I1
(I2
tp79
g20
I00
S'\x00\x00\x00\x00\x00\x00\x00\x00\x01\x00\x00\x00\x00\x00\x00\x00'
p80
tp81
bsg25
I1
sg26
I0
sg27
I01
sg28
I100
sg29
Nsg30
g10
(g11
(I0
tp82
g13
tp83
Rp84
(I1
(I1
tp85
g37
I00
S'\x06\x00\x00\x00'
p86
tp87
bsg42
g10
(g11
(I0
tp88
g13
tp89
Rp90
(I1
(I1
tp91
g49
I00
S'\xa7\x1c\x1d\x86\xf6\x1a\xff\xbf'
p92
tp93
bsg54
g55
sg56
g57
sg58
I42
sg59
g60
sg61
I00
sg62
F0.0001
sg63
g10
(g11
(I0
tp94
g13
tp95
Rp96
(I1
(I1
I2
tp97
g49
I01
S'\x94@\xb6Cv\xda\xf9?\xba\xb6;\xf4}\x8f\xf2?'
p98
tp99
bsg70
g71
sg72
I1
sbag1
(g2
g3
Ntp100
Rp101
(dp102
g7
I00
sg8
I10
sg9
g10
(g11
(I0
tp103
g13
tp104
Rp105
(I1
(I2
tp106
g20
I00
S'\x00\x00\x00\x00\x00\x00\x00\x00\x01\x00\x00\x00\x00\x00\x00\x00'
p107
tp108
bsg25
I1
sg26
I0
sg27
I01
sg28
I100
sg29
Nsg30
g10
(g11
(I0
tp109
g13
tp110
Rp111
(I1
(I1
tp112
g37
I00
S'\x06\x00\x00\x00'
p113
tp114
bsg42
g10
(g11
(I0
tp115
g13
tp116
Rp117
(I1
(I1
tp118
g49
I00
S'\xc33\x8e\x93\xd7\x1e\xff\xbf'
p119
tp120
bsg54
g55
sg56
g57
sg58
I42
sg59
g60
sg61
I00
sg62
F0.0001
sg63
g10
(g11
(I0
tp121
g13
tp122
Rp123
(I1
(I1
I2
tp124
g49
I01
S'\xc6pQpA\xeb\xf9?;7!\x81D\x96\xf2?'
p125
tp126
bsg70
g71
sg72
I1
sbag1
(g2
g3
Ntp127
Rp128
(dp129
g7
I00
sg8
I10
sg9
g10
(g11
(I0
tp130
g13
tp131
Rp132
(I1
(I2
tp133
g20
I00
S'\x00\x00\x00\x00\x00\x00\x00\x00\x01\x00\x00\x00\x00\x00\x00\x00'
p134
tp135
bsg25
I1
sg26
I0
sg27
I01
sg28
I100
sg29
Nsg30
g10
(g11
(I0
tp136
g13
tp137
Rp138
(I1
(I1
tp139
g37
I00
S'\x06\x00\x00\x00'
p140
tp141
bsg42
g10
(g11
(I0
tp142
g13
tp143
Rp144
(I1
(I1
tp145
g49
I00
S'\xddD\\Du\x15\xff\xbf'
p146
tp147
bsg54
g55
sg56
g57
sg58
I42
sg59
g60
sg61
I00
sg62
F0.0001
sg63
g10
(g11
(I0
tp148
g13
tp149
Rp150
(I1
(I1
I2
tp151
g49
I01
S'\x9d\xeca\xf4\xad\xe2\xf9?\x04\xc0\x91\xbe\xa3\x93\xf2?'
p152
tp153
bsg70
g71
sg72
I1
sba.